target datalayout = "e-m:e-p270:32:32-p271:32:32-p272:64:64-i64:64-i128:128-f80:128-n8:16:32:64-S128"
target triple = "x86_64-pc-linux-gnu"

@.str.19 = private unnamed_addr constant [1 x i8] zeroinitializer, align 1

; Function Attrs: nounwind uwtable
define ptr @dt_util_str_to_glist(ptr noundef %0, ptr noundef %1) #0 {
  %3 = alloca ptr, align 8
  %4 = alloca ptr, align 8
  %5 = alloca ptr, align 8
  %6 = alloca ptr, align 8
  %7 = alloca ptr, align 8
  %8 = alloca ptr, align 8
  %9 = alloca ptr, align 8
  %10 = alloca i32, align 4
  %11 = alloca ptr, align 8
  %12 = alloca i8, align 1
  store ptr %0, ptr %4, align 8, !tbaa !6
  store ptr %1, ptr %5, align 8, !tbaa !6
  %13 = load ptr, ptr %5, align 8, !tbaa !6
  %14 = icmp eq ptr %13, null
  br i1 %14, label %15, label %16

15:                                               ; preds = %2
  store ptr null, ptr %3, align 8
  br label %72

16:                                               ; preds = %2
  call void @llvm.lifetime.start.p0(i64 8, ptr %6) #18
  store ptr null, ptr %6, align 8, !tbaa !23
  call void @llvm.lifetime.start.p0(i64 8, ptr %7) #18
  store ptr null, ptr %7, align 8, !tbaa !6
  call void @llvm.lifetime.start.p0(i64 8, ptr %8) #18
  %17 = load ptr, ptr %5, align 8, !tbaa !6
  %18 = call noalias ptr @g_strdup(ptr noundef %17)
  store ptr %18, ptr %8, align 8, !tbaa !6
  call void @llvm.lifetime.start.p0(i64 8, ptr %9) #18
  %19 = load ptr, ptr %8, align 8, !tbaa !6
  store ptr %19, ptr %9, align 8, !tbaa !6
  call void @llvm.lifetime.start.p0(i64 4, ptr %10) #18
  %20 = load ptr, ptr %9, align 8, !tbaa !6
  %21 = call i64 @strlen(ptr noundef %20) #17
  %22 = trunc i64 %21 to i32
  store i32 %22, ptr %10, align 4, !tbaa !15
  br label %23

23:                                               ; preds = %66, %16
  %24 = load i32, ptr %10, align 4, !tbaa !15
  %25 = icmp ne i32 %24, 0
  br i1 %25, label %26, label %67

26:                                               ; preds = %23
  call void @llvm.lifetime.start.p0(i64 8, ptr %11) #18
  %27 = load ptr, ptr %9, align 8, !tbaa !6
  %28 = load ptr, ptr %4, align 8, !tbaa !6
  %29 = call ptr @g_strstr_len(ptr noundef %27, i64 noundef -1, ptr noundef %28)
  store ptr %29, ptr %11, align 8, !tbaa !6
  %30 = load ptr, ptr %11, align 8, !tbaa !6
  %31 = icmp ne ptr %30, null
  br i1 %31, label %32, label %60

32:                                               ; preds = %26
  call void @llvm.lifetime.start.p0(i64 1, ptr %12) #18
  %33 = load ptr, ptr %11, align 8, !tbaa !6
  %34 = getelementptr inbounds i8, ptr %33, i64 0
  %35 = load i8, ptr %34, align 1, !tbaa !18
  store i8 %35, ptr %12, align 1, !tbaa !18
  %36 = load ptr, ptr %11, align 8, !tbaa !6
  %37 = getelementptr inbounds i8, ptr %36, i64 0
  store i8 0, ptr %37, align 1, !tbaa !18
  %38 = load ptr, ptr %9, align 8, !tbaa !6
  %39 = call noalias ptr @g_strdup(ptr noundef %38)
  store ptr %39, ptr %7, align 8, !tbaa !6
  %40 = load i8, ptr %12, align 1, !tbaa !18
  %41 = load ptr, ptr %11, align 8, !tbaa !6
  %42 = getelementptr inbounds i8, ptr %41, i64 0
  store i8 %40, ptr %42, align 1, !tbaa !18
  %43 = load ptr, ptr %11, align 8, !tbaa !6
  %44 = load ptr, ptr %4, align 8, !tbaa !6
  %45 = call i64 @strlen(ptr noundef %44) #17
  %46 = getelementptr inbounds nuw i8, ptr %43, i64 %45
  store ptr %46, ptr %9, align 8, !tbaa !6
  %47 = load ptr, ptr %9, align 8, !tbaa !6
  %48 = call i64 @strlen(ptr noundef %47) #17
  %49 = trunc i64 %48 to i32
  store i32 %49, ptr %10, align 4, !tbaa !15
  %50 = load ptr, ptr %6, align 8, !tbaa !23
  %51 = load ptr, ptr %7, align 8, !tbaa !6
  %52 = call ptr @g_list_prepend(ptr noundef %50, ptr noundef %51)
  store ptr %52, ptr %6, align 8, !tbaa !23
  %53 = load i32, ptr %10, align 4, !tbaa !15
  %54 = icmp ne i32 %53, 0
  br i1 %54, label %59, label %55

55:                                               ; preds = %32
  %56 = load ptr, ptr %6, align 8, !tbaa !23
  %57 = call noalias ptr @g_strdup(ptr noundef @.str.19)
  %58 = call ptr @g_list_prepend(ptr noundef %56, ptr noundef %57)
  store ptr %58, ptr %6, align 8, !tbaa !23
  br label %59

59:                                               ; preds = %55, %32
  call void @llvm.lifetime.end.p0(i64 1, ptr %12) #18
  br label %66

60:                                               ; preds = %26
  %61 = load ptr, ptr %9, align 8, !tbaa !6
  %62 = call noalias ptr @g_strdup(ptr noundef %61)
  store ptr %62, ptr %7, align 8, !tbaa !6
  store i32 0, ptr %10, align 4, !tbaa !15
  %63 = load ptr, ptr %6, align 8, !tbaa !23
  %64 = load ptr, ptr %7, align 8, !tbaa !6
  %65 = call ptr @g_list_prepend(ptr noundef %63, ptr noundef %64)
  store ptr %65, ptr %6, align 8, !tbaa !23
  br label %66

66:                                               ; preds = %60, %59
  call void @llvm.lifetime.end.p0(i64 8, ptr %11) #18
  br label %23

67:                                               ; preds = %23
  %68 = load ptr, ptr %6, align 8, !tbaa !23
  %69 = call ptr @g_list_reverse(ptr noundef %68)
  store ptr %69, ptr %6, align 8, !tbaa !23
  %70 = load ptr, ptr %8, align 8, !tbaa !6
  call void @g_free(ptr noundef %70)
  %71 = load ptr, ptr %6, align 8, !tbaa !23
  store ptr %71, ptr %3, align 8
  call void @llvm.lifetime.end.p0(i64 4, ptr %10) #18
  call void @llvm.lifetime.end.p0(i64 8, ptr %9) #18
  call void @llvm.lifetime.end.p0(i64 8, ptr %8) #18
  call void @llvm.lifetime.end.p0(i64 8, ptr %7) #18
  call void @llvm.lifetime.end.p0(i64 8, ptr %6) #18
  br label %72

72:                                               ; preds = %67, %15
  %73 = load ptr, ptr %3, align 8
  ret ptr %73
}