; Function Attrs: nounwind uwtable
define ptr @dt_util_str_to_glist(ptr noundef %0, ptr noundef %1) local_unnamed_addr #0 {
  %3 = icmp eq ptr %1, null
  br i1 %3, label %20, label %4

4:                                                ; preds = %2
  %5 = tail call noalias ptr @g_strdup(ptr noundef nonnull %1) #27
  %6 = tail call i64 @strlen(ptr noundef nonnull dereferenceable(1) %5) #26
  %7 = and i64 %6, 4294967295
  %.not35 = icmp eq i64 %7, 0
  br i1 %.not35, label %._crit_edge, label %.lr.ph

.lr.ph:                                           ; preds = %4, %9
  %.02637 = phi ptr [ %15, %9 ], [ null, %4 ]
  %.02936 = phi ptr [ %13, %9 ], [ %5, %4 ]
  %8 = tail call ptr @g_strstr_len(ptr noundef nonnull %.02936, i64 noundef -1, ptr noundef %0) #27
  %.not33 = icmp eq ptr %8, null
  br i1 %.not33, label %._crit_edge.sink.split, label %9

9:                                                ; preds = %.lr.ph
  %10 = load i8, ptr %8, align 1, !tbaa !11
  store i8 0, ptr %8, align 1, !tbaa !11
  %11 = tail call noalias ptr @g_strdup(ptr noundef nonnull %.02936) #27
  store i8 %10, ptr %8, align 1, !tbaa !11
  %12 = tail call i64 @strlen(ptr noundef nonnull dereferenceable(1) %0) #26
  %13 = getelementptr inbounds nuw i8, ptr %8, i64 %12
  %14 = tail call i64 @strlen(ptr noundef nonnull dereferenceable(1) %13) #26
  %15 = tail call ptr @g_list_prepend(ptr noundef %.02637, ptr noundef %11) #27
  %16 = and i64 %14, 4294967295
  %.not34 = icmp eq i64 %16, 0
  br i1 %.not34, label %._crit_edge.sink.split, label %.lr.ph

._crit_edge.sink.split:                           ; preds = %.lr.ph, %9
  %.str.19.sink = phi ptr [ @.str.19, %9 ], [ %.02936, %.lr.ph ]
  %.lcssa.sink = phi ptr [ %15, %9 ], [ %.02637, %.lr.ph ]
  %17 = tail call noalias ptr @g_strdup(ptr noundef nonnull %.str.19.sink) #27
  %18 = tail call ptr @g_list_prepend(ptr noundef %.lcssa.sink, ptr noundef %17) #27
  br label %._crit_edge

._crit_edge:                                      ; preds = %._crit_edge.sink.split, %4
  %.026.lcssa = phi ptr [ null, %4 ], [ %18, %._crit_edge.sink.split ]
  %19 = tail call ptr @g_list_reverse(ptr noundef %.026.lcssa) #27
  tail call void @g_free(ptr noundef nonnull %5) #27
  br label %20

20:                                               ; preds = %2, %._crit_edge
  %.0 = phi ptr [ %19, %._crit_edge ], [ null, %2 ]
  ret ptr %.0
}